; Function Attrs: mustprogress uwtable
define dso_local noundef zeroext i1 @_ZN16cmCPackGenerator12ReadListFileEPKc(ptr nocapture noundef nonnull readonly align 8 dereferenceable(360) %0, ptr noundef %1) local_unnamed_addr #6 align 2 personality ptr @__gxx_personality_v0 {
  %3 = alloca i8, align 1
  %4 = alloca %"class.std::__cxx11::basic_string", align 8
  %5 = alloca %"class.std::__cxx11::basic_string", align 8
  %6 = alloca %"class.std::__cxx11::basic_string", align 8
  %7 = alloca %"class.std::allocator", align 1
  %8 = getelementptr inbounds i8, ptr %0, i64 352
  %9 = load ptr, ptr %8, align 8
  call void @_ZNSaIcEC1Ev(ptr noundef nonnull align 1 dereferenceable(1) %7) #23
  %10 = invoke noundef ptr @_ZNSt7__cxx1112basic_stringIcSt11char_traitsIcESaIcEE13_M_local_dataEv(ptr noundef nonnull align 8 dereferenceable(32) %6)
          to label %.noexc unwind label %36

.noexc:                                           ; preds = %2
  invoke void @_ZNSt7__cxx1112basic_stringIcSt11char_traitsIcESaIcEE12_Alloc_hiderC1EPcRKS3_(ptr noundef nonnull align 8 dereferenceable(8) %6, ptr noundef %10, ptr noundef nonnull align 1 dereferenceable(1) %7)
          to label %.noexc10 unwind label %36

.noexc10:                                         ; preds = %.noexc
  %11 = icmp eq ptr %1, null
  br i1 %11, label %12, label %16

12:                                               ; preds = %.noexc10
  invoke void @_ZSt19__throw_logic_errorPKc(ptr noundef nonnull @.str.210) #27
          to label %13 unwind label %14

13:                                               ; preds = %12
  unreachable

14:                                               ; preds = %16, %12
  %15 = landingpad { ptr, i32 }
          cleanup
  call void @_ZNSaIcED2Ev(ptr noundef nonnull align 1 dereferenceable(1) %6) #23
  br label %.body

16:                                               ; preds = %.noexc10
  %17 = call noundef i64 @strlen(ptr noundef nonnull dereferenceable(1) %1) #23
  %18 = getelementptr inbounds i8, ptr %1, i64 %17
  invoke void @_ZNSt7__cxx1112basic_stringIcSt11char_traitsIcESaIcEE12_M_constructIPKcEEvT_S8_St20forward_iterator_tag(ptr noundef nonnull align 8 dereferenceable(32) %6, ptr noundef nonnull %1, ptr noundef nonnull %18)
          to label %_ZNSt7__cxx1112basic_stringIcSt11char_traitsIcESaIcEEC2IS3_EEPKcRKS3_.exit unwind label %14

_ZNSt7__cxx1112basic_stringIcSt11char_traitsIcESaIcEEC2IS3_EEPKcRKS3_.exit: ; preds = %16
  call void @llvm.lifetime.start.p0(i64 1, ptr nonnull %3)
  call void @llvm.lifetime.start.p0(i64 32, ptr nonnull %4)
  call void @_ZNSt7__cxx1112basic_stringIcSt11char_traitsIcESaIcEEC1Ev(ptr noundef nonnull align 8 dereferenceable(32) %4) #23, !noalias !123
  invoke void @_ZNK10cmMakefile14GetModulesFileERKNSt7__cxx1112basic_stringIcSt11char_traitsIcESaIcEEERbbRS5_(ptr dead_on_unwind nonnull writable sret(%"class.std::__cxx11::basic_string") align 8 %5, ptr noundef nonnull align 8 dereferenceable(3520) %9, ptr noundef nonnull align 8 dereferenceable(32) %6, ptr noundef nonnull align 1 dereferenceable(1) %3, i1 noundef zeroext false, ptr noundef nonnull align 8 dereferenceable(32) %4)
          to label %20 unwind label %.body11

.body11:                                          ; preds = %_ZNSt7__cxx1112basic_stringIcSt11char_traitsIcESaIcEEC2IS3_EEPKcRKS3_.exit
  %19 = landingpad { ptr, i32 }
          cleanup
  call void @_ZNSt7__cxx1112basic_stringIcSt11char_traitsIcESaIcEED1Ev(ptr noundef nonnull align 8 dereferenceable(32) %4) #23
  call void @_ZNSt7__cxx1112basic_stringIcSt11char_traitsIcESaIcEED1Ev(ptr noundef nonnull align 8 dereferenceable(32) %6) #23
  br label %.body

20:                                               ; preds = %_ZNSt7__cxx1112basic_stringIcSt11char_traitsIcESaIcEEC2IS3_EEPKcRKS3_.exit
  call void @_ZNSt7__cxx1112basic_stringIcSt11char_traitsIcESaIcEED1Ev(ptr noundef nonnull align 8 dereferenceable(32) %4) #23
  call void @llvm.lifetime.end.p0(i64 1, ptr nonnull %3)
  call void @llvm.lifetime.end.p0(i64 32, ptr nonnull %4)
  call void @_ZNSt7__cxx1112basic_stringIcSt11char_traitsIcESaIcEED1Ev(ptr noundef nonnull align 8 dereferenceable(32) %6) #23
  call void @_ZNSaIcED1Ev(ptr noundef nonnull align 1 dereferenceable(1) %7) #23
  %21 = load ptr, ptr %8, align 8
  %22 = invoke noundef zeroext i1 @_ZN10cmMakefile12ReadListFileERKNSt7__cxx1112basic_stringIcSt11char_traitsIcESaIcEEE(ptr noundef nonnull align 8 dereferenceable(3520) %21, ptr noundef nonnull align 8 dereferenceable(32) %5)
          to label %23 unwind label %38

23:                                               ; preds = %20
  br i1 %22, label %24, label %34

24:                                               ; preds = %23
  %25 = load i8, ptr @_ZN13cmSystemTools15s_ErrorOccurredE, align 1
  %26 = and i8 %25, 1
  %.not.i = icmp eq i8 %26, 0
  br i1 %.not.i, label %27, label %_ZN13cmSystemTools20GetErrorOccurredFlagEv.exit

27:                                               ; preds = %24
  %28 = load i8, ptr @_ZN13cmSystemTools20s_FatalErrorOccurredE, align 1
  %29 = and i8 %28, 1
  %.not1.i = icmp eq i8 %29, 0
  br i1 %.not1.i, label %30, label %_ZN13cmSystemTools20GetErrorOccurredFlagEv.exit

30:                                               ; preds = %27
  %31 = invoke noundef zeroext i1 @_ZN13cmSystemTools16GetInterruptFlagEv()
          to label %_ZN13cmSystemTools20GetErrorOccurredFlagEv.exit unwind label %38

_ZN13cmSystemTools20GetErrorOccurredFlagEv.exit:  ; preds = %27, %24, %30
  %32 = phi i1 [ true, %27 ], [ true, %24 ], [ %31, %30 ]
  %33 = xor i1 %32, true
  br label %34

34:                                               ; preds = %_ZN13cmSystemTools20GetErrorOccurredFlagEv.exit, %23
  %35 = phi i1 [ false, %23 ], [ %33, %_ZN13cmSystemTools20GetErrorOccurredFlagEv.exit ]
  call void @_ZNSt7__cxx1112basic_stringIcSt11char_traitsIcESaIcEED1Ev(ptr noundef nonnull align 8 dereferenceable(32) %5) #23
  ret i1 %35

36:                                               ; preds = %.noexc, %2
  %37 = landingpad { ptr, i32 }
          cleanup
  br label %.body

.body:                                            ; preds = %36, %14, %.body11
  %.pn = phi { ptr, i32 } [ %19, %.body11 ], [ %37, %36 ], [ %15, %14 ]
  call void @_ZNSaIcED1Ev(ptr noundef nonnull align 1 dereferenceable(1) %7) #23
  br label %40

38:                                               ; preds = %30, %20
  %39 = landingpad { ptr, i32 }
          cleanup
  call void @_ZNSt7__cxx1112basic_stringIcSt11char_traitsIcESaIcEED1Ev(ptr noundef nonnull align 8 dereferenceable(32) %5) #23
  br label %40

40:                                               ; preds = %38, %.body
  %.pn8 = phi { ptr, i32 } [ %39, %38 ], [ %.pn, %.body ]
  resume { ptr, i32 } %.pn8
}